target datalayout = "e-m:e-p270:32:32-p271:32:32-p272:64:64-i64:64-i128:128-f80:128-n8:16:32:64-S128"
target triple = "x86_64-pc-linux-gnu"

%struct.AVRational = type { i32, i32 }
%struct.AVFormatContext = type { ptr, ptr, ptr, ptr, ptr, i32, i32, ptr, i32, ptr, i32, ptr, ptr, i64, i64, i64, i32, i32, i32, i64, i64, ptr, i32, i32, ptr, i32, i32, i32, i32, ptr, i64, i32, i32, %struct.AVIOInterruptCB, i32, i32, i32, i32, i64, i32, i32, i32, i32, i32, i32, i32, i32, i32, i32, i32, i32, i64, i32, i32, i32, i32, i32, ptr, ptr, ptr, ptr, i32, ptr, ptr, ptr, ptr, i32, ptr, ptr, i64, ptr, ptr, ptr, i64 }
%struct.AVIOInterruptCB = type { ptr, ptr }
%struct.gxf_stream_info = type { i64, i64, %struct.AVRational, i32, i64 }
%struct.AVStream = type { ptr, i32, i32, ptr, ptr, %struct.AVRational, i64, i64, i64, i32, i32, %struct.AVRational, ptr, %struct.AVRational, %struct.AVPacket, i32, %struct.AVRational, i32 }
%struct.AVPacket = type { ptr, i64, i64, ptr, i32, i32, i32, ptr, i32, i64, i64, ptr, ptr, %struct.AVRational }
%struct.AVIOContext = type { ptr, ptr, i32, ptr, ptr, ptr, ptr, ptr, ptr, i64, i32, i32, i32, i32, i32, i64, ptr, ptr, ptr, ptr, i32, i32, ptr, ptr, ptr, i32, ptr, i64, i64 }
%struct.AVCodecParameters = type { i32, i32, i32, ptr, i32, ptr, i32, i32, i64, i32, i32, i32, i32, i32, i32, %struct.AVRational, %struct.AVRational, i32, i32, i32, i32, i32, i32, i32, %struct.AVChannelLayout, i32, i32, i32, i32, i32, i32 }
%struct.AVChannelLayout = type { i32, i32, %union.anon, ptr }
%union.anon = type { i64 }

@.str.19 = private unnamed_addr constant [11 x i8] c"sync lost\0A\00", align 1
@.str.20 = private unnamed_addr constant [29 x i8] c"invalid media packet length\0A\00", align 1
@.str.21 = private unnamed_addr constant [38 x i8] c"invalid first and last sample values\0A\00", align 1

; Function Attrs: nounwind uwtable
define internal i32 @gxf_packet(ptr noundef %0, ptr noundef %1) #0 {
  %3 = alloca i32, align 4
  %4 = alloca ptr, align 8
  %5 = alloca ptr, align 8
  %6 = alloca ptr, align 8
  %7 = alloca i32, align 4
  %8 = alloca i32, align 4
  %9 = alloca ptr, align 8
  %10 = alloca ptr, align 8
  %11 = alloca i32, align 4
  %12 = alloca i32, align 4
  %13 = alloca i32, align 4
  %14 = alloca i32, align 4
  %15 = alloca i32, align 4
  %16 = alloca i32, align 4
  %17 = alloca i32, align 4
  %18 = alloca i32, align 4
  %19 = alloca i32, align 4
  %20 = alloca i32, align 4
  %21 = alloca i32, align 4
  store ptr %0, ptr %4, align 8, !tbaa !13
  store ptr %1, ptr %5, align 8, !tbaa !60
  call void @llvm.lifetime.start.p0(i64 8, ptr %6) #10
  %22 = load ptr, ptr %4, align 8, !tbaa !13
  %23 = getelementptr inbounds nuw %struct.AVFormatContext, ptr %22, i32 0, i32 4
  %24 = load ptr, ptr %23, align 8, !tbaa !15
  store ptr %24, ptr %6, align 8, !tbaa !30
  call void @llvm.lifetime.start.p0(i64 4, ptr %7) #10
  call void @llvm.lifetime.start.p0(i64 4, ptr %8) #10
  call void @llvm.lifetime.start.p0(i64 8, ptr %9) #10
  %25 = load ptr, ptr %4, align 8, !tbaa !13
  %26 = getelementptr inbounds nuw %struct.AVFormatContext, ptr %25, i32 0, i32 3
  %27 = load ptr, ptr %26, align 8, !tbaa !31
  store ptr %27, ptr %9, align 8, !tbaa !32
  br label %28

28:                                               ; preds = %186, %2
  %29 = load ptr, ptr %6, align 8, !tbaa !30
  %30 = getelementptr inbounds nuw %struct.AVIOContext, ptr %29, i32 0, i32 10
  %31 = load i32, ptr %30, align 8, !tbaa !62
  %32 = icmp ne i32 %31, 0
  %33 = xor i1 %32, true
  br i1 %33, label %34, label %188

34:                                               ; preds = %28
  call void @llvm.lifetime.start.p0(i64 8, ptr %10) #10
  call void @llvm.lifetime.start.p0(i64 4, ptr %11) #10
  call void @llvm.lifetime.start.p0(i64 4, ptr %12) #10
  call void @llvm.lifetime.start.p0(i64 4, ptr %13) #10
  call void @llvm.lifetime.start.p0(i64 4, ptr %14) #10
  call void @llvm.lifetime.start.p0(i64 4, ptr %15) #10
  call void @llvm.lifetime.start.p0(i64 4, ptr %16) #10
  store i32 0, ptr %16, align 4, !tbaa !34
  call void @llvm.lifetime.start.p0(i64 4, ptr %17) #10
  %35 = load ptr, ptr %6, align 8, !tbaa !30
  %36 = call i32 @parse_packet_header(ptr noundef %35, ptr noundef %7, ptr noundef %8)
  %37 = icmp ne i32 %36, 0
  br i1 %37, label %45, label %38

38:                                               ; preds = %34
  %39 = load ptr, ptr %6, align 8, !tbaa !30
  %40 = call i32 @avio_feof(ptr noundef %39)
  %41 = icmp ne i32 %40, 0
  br i1 %41, label %44, label %42

42:                                               ; preds = %38
  %43 = load ptr, ptr %4, align 8, !tbaa !13
  call void (ptr, i32, ptr, ...) @av_log(ptr noundef %43, i32 noundef 16, ptr noundef @.str.19)
  br label %44

44:                                               ; preds = %42, %38
  store i32 -1, ptr %3, align 4
  store i32 1, ptr %18, align 4
  br label %186

45:                                               ; preds = %34
  %46 = load i32, ptr %7, align 4, !tbaa !34
  %47 = icmp eq i32 %46, 252
  br i1 %47, label %48, label %51

48:                                               ; preds = %45
  %49 = load ptr, ptr %4, align 8, !tbaa !13
  %50 = load i32, ptr %8, align 4, !tbaa !34
  call void @gxf_read_index(ptr noundef %49, i32 noundef %50)
  store i32 2, ptr %18, align 4
  br label %186, !llvm.loop !64

51:                                               ; preds = %45
  %52 = load i32, ptr %7, align 4, !tbaa !34
  %53 = icmp ne i32 %52, 191
  br i1 %53, label %54, label %59

54:                                               ; preds = %51
  %55 = load ptr, ptr %6, align 8, !tbaa !30
  %56 = load i32, ptr %8, align 4, !tbaa !34
  %57 = sext i32 %56 to i64
  %58 = call i64 @avio_skip(ptr noundef %55, i64 noundef %57)
  store i32 2, ptr %18, align 4
  br label %186, !llvm.loop !64

59:                                               ; preds = %51
  %60 = load i32, ptr %8, align 4, !tbaa !34
  %61 = icmp slt i32 %60, 16
  br i1 %61, label %62, label %64

62:                                               ; preds = %59
  %63 = load ptr, ptr %4, align 8, !tbaa !13
  call void (ptr, i32, ptr, ...) @av_log(ptr noundef %63, i32 noundef 16, ptr noundef @.str.20)
  store i32 2, ptr %18, align 4
  br label %186, !llvm.loop !64

64:                                               ; preds = %59
  %65 = load i32, ptr %8, align 4, !tbaa !34
  %66 = sub nsw i32 %65, 16
  store i32 %66, ptr %8, align 4, !tbaa !34
  %67 = load ptr, ptr %6, align 8, !tbaa !30
  %68 = call i32 @avio_r8(ptr noundef %67)
  store i32 %68, ptr %11, align 4, !tbaa !34
  %69 = load ptr, ptr %6, align 8, !tbaa !30
  %70 = call i32 @avio_r8(ptr noundef %69)
  store i32 %70, ptr %12, align 4, !tbaa !34
  %71 = load ptr, ptr %4, align 8, !tbaa !13
  %72 = load i32, ptr %12, align 4, !tbaa !34
  %73 = load i32, ptr %11, align 4, !tbaa !34
  %74 = call i32 @get_sindex(ptr noundef %71, i32 noundef %72, i32 noundef %73)
  store i32 %74, ptr %17, align 4, !tbaa !34
  %75 = load i32, ptr %17, align 4, !tbaa !34
  %76 = icmp slt i32 %75, 0
  br i1 %76, label %77, label %79

77:                                               ; preds = %64
  %78 = load i32, ptr %17, align 4, !tbaa !34
  store i32 %78, ptr %3, align 4
  store i32 1, ptr %18, align 4
  br label %186

79:                                               ; preds = %64
  %80 = load ptr, ptr %4, align 8, !tbaa !13
  %81 = getelementptr inbounds nuw %struct.AVFormatContext, ptr %80, i32 0, i32 7
  %82 = load ptr, ptr %81, align 8, !tbaa !41
  %83 = load i32, ptr %17, align 4, !tbaa !34
  %84 = sext i32 %83 to i64
  %85 = getelementptr inbounds ptr, ptr %82, i64 %84
  %86 = load ptr, ptr %85, align 8, !tbaa !42
  store ptr %86, ptr %10, align 8, !tbaa !42
  %87 = load ptr, ptr %6, align 8, !tbaa !30
  %88 = call i32 @avio_rb32(ptr noundef %87)
  store i32 %88, ptr %14, align 4, !tbaa !34
  %89 = load ptr, ptr %6, align 8, !tbaa !30
  %90 = call i32 @avio_rb32(ptr noundef %89)
  store i32 %90, ptr %15, align 4, !tbaa !34
  %91 = load ptr, ptr %6, align 8, !tbaa !30
  %92 = call i32 @avio_rb32(ptr noundef %91)
  %93 = load ptr, ptr %6, align 8, !tbaa !30
  %94 = call i32 @avio_r8(ptr noundef %93)
  %95 = load ptr, ptr %6, align 8, !tbaa !30
  %96 = call i32 @avio_r8(ptr noundef %95)
  %97 = load ptr, ptr %10, align 8, !tbaa !42
  %98 = getelementptr inbounds nuw %struct.AVStream, ptr %97, i32 0, i32 3
  %99 = load ptr, ptr %98, align 8, !tbaa !65
  %100 = getelementptr inbounds nuw %struct.AVCodecParameters, ptr %99, i32 0, i32 1
  %101 = load i32, ptr %100, align 4, !tbaa !66
  %102 = icmp eq i32 %101, 65548
  br i1 %102, label %110, label %103

103:                                              ; preds = %79
  %104 = load ptr, ptr %10, align 8, !tbaa !42
  %105 = getelementptr inbounds nuw %struct.AVStream, ptr %104, i32 0, i32 3
  %106 = load ptr, ptr %105, align 8, !tbaa !65
  %107 = getelementptr inbounds nuw %struct.AVCodecParameters, ptr %106, i32 0, i32 1
  %108 = load i32, ptr %107, align 4, !tbaa !66
  %109 = icmp eq i32 %108, 65536
  br i1 %109, label %110, label %151

110:                                              ; preds = %103, %79
  call void @llvm.lifetime.start.p0(i64 4, ptr %19) #10
  %111 = load i32, ptr %15, align 4, !tbaa !34
  %112 = ashr i32 %111, 16
  store i32 %112, ptr %19, align 4, !tbaa !34
  call void @llvm.lifetime.start.p0(i64 4, ptr %20) #10
  %113 = load i32, ptr %15, align 4, !tbaa !34
  %114 = and i32 %113, 65535
  store i32 %114, ptr %20, align 4, !tbaa !34
  call void @llvm.lifetime.start.p0(i64 4, ptr %21) #10
  %115 = load ptr, ptr %10, align 8, !tbaa !42
  %116 = getelementptr inbounds nuw %struct.AVStream, ptr %115, i32 0, i32 3
  %117 = load ptr, ptr %116, align 8, !tbaa !65
  %118 = getelementptr inbounds nuw %struct.AVCodecParameters, ptr %117, i32 0, i32 1
  %119 = load i32, ptr %118, align 4, !tbaa !66
  %120 = call i32 @av_get_bits_per_sample(i32 noundef %119)
  %121 = ashr i32 %120, 3
  store i32 %121, ptr %21, align 4, !tbaa !34
  %122 = load i32, ptr %19, align 4, !tbaa !34
  %123 = load i32, ptr %20, align 4, !tbaa !34
  %124 = icmp sle i32 %122, %123
  br i1 %124, label %125, label %148

125:                                              ; preds = %110
  %126 = load i32, ptr %20, align 4, !tbaa !34
  %127 = load i32, ptr %21, align 4, !tbaa !34
  %128 = mul nsw i32 %126, %127
  %129 = load i32, ptr %8, align 4, !tbaa !34
  %130 = icmp sle i32 %128, %129
  br i1 %130, label %131, label %148

131:                                              ; preds = %125
  %132 = load ptr, ptr %6, align 8, !tbaa !30
  %133 = load i32, ptr %19, align 4, !tbaa !34
  %134 = load i32, ptr %21, align 4, !tbaa !34
  %135 = mul nsw i32 %133, %134
  %136 = sext i32 %135 to i64
  %137 = call i64 @avio_skip(ptr noundef %132, i64 noundef %136)
  %138 = load i32, ptr %8, align 4, !tbaa !34
  %139 = load i32, ptr %20, align 4, !tbaa !34
  %140 = load i32, ptr %21, align 4, !tbaa !34
  %141 = mul nsw i32 %139, %140
  %142 = sub nsw i32 %138, %141
  store i32 %142, ptr %16, align 4, !tbaa !34
  %143 = load i32, ptr %20, align 4, !tbaa !34
  %144 = load i32, ptr %19, align 4, !tbaa !34
  %145 = sub nsw i32 %143, %144
  %146 = load i32, ptr %21, align 4, !tbaa !34
  %147 = mul nsw i32 %145, %146
  store i32 %147, ptr %8, align 4, !tbaa !34
  br label %150

148:                                              ; preds = %125, %110
  %149 = load ptr, ptr %4, align 8, !tbaa !13
  call void (ptr, i32, ptr, ...) @av_log(ptr noundef %149, i32 noundef 16, ptr noundef @.str.21)
  br label %150

150:                                              ; preds = %148, %131
  call void @llvm.lifetime.end.p0(i64 4, ptr %21) #10
  call void @llvm.lifetime.end.p0(i64 4, ptr %20) #10
  call void @llvm.lifetime.end.p0(i64 4, ptr %19) #10
  br label %151

151:                                              ; preds = %150, %103
  %152 = load ptr, ptr %6, align 8, !tbaa !30
  %153 = load ptr, ptr %5, align 8, !tbaa !60
  %154 = load i32, ptr %8, align 4, !tbaa !34
  %155 = call i32 @av_get_packet(ptr noundef %152, ptr noundef %153, i32 noundef %154)
  store i32 %155, ptr %13, align 4, !tbaa !34
  %156 = load i32, ptr %16, align 4, !tbaa !34
  %157 = icmp ne i32 %156, 0
  br i1 %157, label %158, label %163

158:                                              ; preds = %151
  %159 = load ptr, ptr %6, align 8, !tbaa !30
  %160 = load i32, ptr %16, align 4, !tbaa !34
  %161 = sext i32 %160 to i64
  %162 = call i64 @avio_skip(ptr noundef %159, i64 noundef %161)
  br label %163

163:                                              ; preds = %158, %151
  %164 = load i32, ptr %17, align 4, !tbaa !34
  %165 = load ptr, ptr %5, align 8, !tbaa !60
  %166 = getelementptr inbounds nuw %struct.AVPacket, ptr %165, i32 0, i32 5
  store i32 %164, ptr %166, align 4, !tbaa !69
  %167 = load i32, ptr %14, align 4, !tbaa !34
  %168 = sext i32 %167 to i64
  %169 = load ptr, ptr %5, align 8, !tbaa !60
  %170 = getelementptr inbounds nuw %struct.AVPacket, ptr %169, i32 0, i32 2
  store i64 %168, ptr %170, align 8, !tbaa !70
  %171 = load ptr, ptr %10, align 8, !tbaa !42
  %172 = getelementptr inbounds nuw %struct.AVStream, ptr %171, i32 0, i32 3
  %173 = load ptr, ptr %172, align 8, !tbaa !65
  %174 = getelementptr inbounds nuw %struct.AVCodecParameters, ptr %173, i32 0, i32 1
  %175 = load i32, ptr %174, align 4, !tbaa !66
  %176 = icmp eq i32 %175, 24
  br i1 %176, label %177, label %184

177:                                              ; preds = %163
  %178 = load ptr, ptr %9, align 8, !tbaa !32
  %179 = getelementptr inbounds nuw %struct.gxf_stream_info, ptr %178, i32 0, i32 3
  %180 = load i32, ptr %179, align 8, !tbaa !40
  %181 = sext i32 %180 to i64
  %182 = load ptr, ptr %5, align 8, !tbaa !60
  %183 = getelementptr inbounds nuw %struct.AVPacket, ptr %182, i32 0, i32 9
  store i64 %181, ptr %183, align 8, !tbaa !71
  br label %184

184:                                              ; preds = %177, %163
  %185 = load i32, ptr %13, align 4, !tbaa !34
  store i32 %185, ptr %3, align 4
  store i32 1, ptr %18, align 4
  br label %186

186:                                              ; preds = %184, %77, %62, %54, %48, %44
  call void @llvm.lifetime.end.p0(i64 4, ptr %17) #10
  call void @llvm.lifetime.end.p0(i64 4, ptr %16) #10
  call void @llvm.lifetime.end.p0(i64 4, ptr %15) #10
  call void @llvm.lifetime.end.p0(i64 4, ptr %14) #10
  call void @llvm.lifetime.end.p0(i64 4, ptr %13) #10
  call void @llvm.lifetime.end.p0(i64 4, ptr %12) #10
  call void @llvm.lifetime.end.p0(i64 4, ptr %11) #10
  call void @llvm.lifetime.end.p0(i64 8, ptr %10) #10
  %187 = load i32, ptr %18, align 4
  switch i32 %187, label %189 [
    i32 2, label %28
  ]

188:                                              ; preds = %28
  store i32 -541478725, ptr %3, align 4
  store i32 1, ptr %18, align 4
  br label %189

189:                                              ; preds = %188, %186
  call void @llvm.lifetime.end.p0(i64 8, ptr %9) #10
  call void @llvm.lifetime.end.p0(i64 4, ptr %8) #10
  call void @llvm.lifetime.end.p0(i64 4, ptr %7) #10
  call void @llvm.lifetime.end.p0(i64 8, ptr %6) #10
  %190 = load i32, ptr %3, align 4
  ret i32 %190
}