; Function Attrs: nounwind uwtable
define internal i32 @gxf_packet(ptr noundef %0, ptr noundef %1) #1 {
  %3 = alloca i32, align 4
  %4 = alloca i32, align 4
  %5 = getelementptr inbounds nuw i8, ptr %0, i64 32
  %6 = load ptr, ptr %5, align 8, !tbaa !11
  call void @llvm.lifetime.start.p0(i64 4, ptr nonnull %3) #7
  call void @llvm.lifetime.start.p0(i64 4, ptr nonnull %4) #7
  %7 = getelementptr inbounds nuw i8, ptr %0, i64 24
  %8 = load ptr, ptr %7, align 8, !tbaa !26
  %9 = getelementptr inbounds nuw i8, ptr %6, i64 80
  %10 = load i32, ptr %9, align 8, !tbaa !51
  %.not78 = icmp eq i32 %10, 0
  br i1 %.not78, label %.lr.ph, label %.thread75

.lr.ph:                                           ; preds = %2, %80
  %11 = call fastcc i32 @parse_packet_header(ptr noundef nonnull %6, ptr noundef %3, ptr noundef %4)
  %.not66 = icmp eq i32 %11, 0
  br i1 %.not66, label %12, label %15

12:                                               ; preds = %.lr.ph
  %13 = tail call i32 @avio_feof(ptr noundef nonnull %6) #7
  %.not67 = icmp eq i32 %13, 0
  br i1 %.not67, label %14, label %.thread75

14:                                               ; preds = %12
  tail call void (ptr, i32, ptr, ...) @av_log(ptr noundef %0, i32 noundef 16, ptr noundef nonnull @.str.19) #7
  br label %.thread75

15:                                               ; preds = %.lr.ph
  %16 = load i32, ptr %3, align 4, !tbaa !27
  %17 = load i32, ptr %4, align 4, !tbaa !27
  switch i32 %16, label %19 [
    i32 252, label %18
    i32 191, label %22
  ]

18:                                               ; preds = %15
  tail call fastcc void @gxf_read_index(ptr noundef %0, i32 noundef %17)
  br label %80, !llvm.loop !53

19:                                               ; preds = %15
  %20 = sext i32 %17 to i64
  %21 = tail call i64 @avio_skip(ptr noundef nonnull %6, i64 noundef %20) #7
  br label %80, !llvm.loop !53

22:                                               ; preds = %15
  %23 = icmp slt i32 %17, 16
  br i1 %23, label %24, label %25

24:                                               ; preds = %22
  tail call void (ptr, i32, ptr, ...) @av_log(ptr noundef %0, i32 noundef 16, ptr noundef nonnull @.str.20) #7
  br label %80, !llvm.loop !53

25:                                               ; preds = %22
  %26 = add nsw i32 %17, -16
  %27 = tail call i32 @avio_r8(ptr noundef nonnull %6) #7
  %28 = tail call i32 @avio_r8(ptr noundef nonnull %6) #7
  %29 = tail call fastcc i32 @get_sindex(ptr noundef %0, i32 noundef %28, i32 noundef %27)
  %30 = icmp slt i32 %29, 0
  br i1 %30, label %.thread75, label %31

31:                                               ; preds = %25
  %32 = getelementptr inbounds nuw i8, ptr %0, i64 48
  %33 = load ptr, ptr %32, align 8, !tbaa !36
  %34 = zext nneg i32 %29 to i64
  %35 = getelementptr inbounds nuw ptr, ptr %33, i64 %34
  %36 = load ptr, ptr %35, align 8, !tbaa !37
  %37 = tail call i32 @avio_rb32(ptr noundef nonnull %6) #7
  %38 = tail call i32 @avio_rb32(ptr noundef nonnull %6) #7
  %39 = tail call i32 @avio_rb32(ptr noundef nonnull %6) #7
  %40 = tail call i32 @avio_r8(ptr noundef nonnull %6) #7
  %41 = tail call i32 @avio_r8(ptr noundef nonnull %6) #7
  %42 = getelementptr inbounds nuw i8, ptr %36, i64 16
  %43 = load ptr, ptr %42, align 8, !tbaa !54
  %44 = getelementptr inbounds nuw i8, ptr %43, i64 4
  %45 = load i32, ptr %44, align 4, !tbaa !55
  switch i32 %45, label %.thread [
    i32 65548, label %46
    i32 65536, label %46
  ]

46:                                               ; preds = %31, %31
  %47 = ashr i32 %38, 16
  %48 = and i32 %38, 65535
  %49 = tail call i32 @av_get_bits_per_sample(i32 noundef %45) #7
  %50 = ashr i32 %49, 3
  %.not69 = icmp sgt i32 %47, %48
  br i1 %.not69, label %53, label %51

51:                                               ; preds = %46
  %52 = mul nsw i32 %50, %48
  %.not70 = icmp sgt i32 %52, %26
  br i1 %.not70, label %53, label %55

53:                                               ; preds = %51, %46
  tail call void (ptr, i32, ptr, ...) @av_log(ptr noundef nonnull %0, i32 noundef 16, ptr noundef nonnull @.str.21) #7
  br label %.thread

.thread:                                          ; preds = %31, %53
  %54 = tail call i32 @av_get_packet(ptr noundef nonnull %6, ptr noundef %1, i32 noundef %26) #7
  br label %66

55:                                               ; preds = %51
  %56 = mul nsw i32 %50, %47
  %57 = sext i32 %56 to i64
  %58 = tail call i64 @avio_skip(ptr noundef nonnull %6, i64 noundef %57) #7
  %59 = sub nsw i32 %48, %47
  %60 = mul nsw i32 %50, %59
  %61 = tail call i32 @av_get_packet(ptr noundef nonnull %6, ptr noundef %1, i32 noundef %60) #7
  %.not71 = icmp eq i32 %26, %52
  br i1 %.not71, label %66, label %62

62:                                               ; preds = %55
  %63 = sub nsw i32 %26, %52
  %64 = sext i32 %63 to i64
  %65 = tail call i64 @avio_skip(ptr noundef nonnull %6, i64 noundef %64) #7
  br label %66

66:                                               ; preds = %.thread, %62, %55
  %67 = phi i32 [ %54, %.thread ], [ %61, %62 ], [ %61, %55 ]
  %68 = getelementptr inbounds nuw i8, ptr %1, i64 36
  store i32 %29, ptr %68, align 4, !tbaa !58
  %69 = sext i32 %37 to i64
  %70 = getelementptr inbounds nuw i8, ptr %1, i64 16
  store i64 %69, ptr %70, align 8, !tbaa !59
  %71 = load ptr, ptr %42, align 8, !tbaa !54
  %72 = getelementptr inbounds nuw i8, ptr %71, i64 4
  %73 = load i32, ptr %72, align 4, !tbaa !55
  %74 = icmp eq i32 %73, 24
  br i1 %74, label %75, label %.thread75

75:                                               ; preds = %66
  %76 = getelementptr inbounds nuw i8, ptr %8, i64 24
  %77 = load i32, ptr %76, align 8, !tbaa !34
  %78 = sext i32 %77 to i64
  %79 = getelementptr inbounds nuw i8, ptr %1, i64 64
  store i64 %78, ptr %79, align 8, !tbaa !60
  br label %.thread75

80:                                               ; preds = %24, %19, %18
  %81 = load i32, ptr %9, align 8, !tbaa !51
  %.not = icmp eq i32 %81, 0
  br i1 %.not, label %.lr.ph, label %.thread75

.thread75:                                        ; preds = %80, %2, %66, %75, %25, %12, %14
  %.2 = phi i32 [ %67, %66 ], [ %67, %75 ], [ %29, %25 ], [ -1, %12 ], [ -1, %14 ], [ -541478725, %2 ], [ -541478725, %80 ]
  call void @llvm.lifetime.end.p0(i64 4, ptr nonnull %4) #7
  call void @llvm.lifetime.end.p0(i64 4, ptr nonnull %3) #7
  ret i32 %.2
}